target datalayout = "e-m:e-p270:32:32-p271:32:32-p272:64:64-i64:64-i128:128-f80:128-n8:16:32:64-S128"
target triple = "x86_64-pc-linux-gnu"

%struct.KangarooTwelve_Instance = type { %struct.KeccakWidth1600_12rounds_SpongeInstanceStruct, [4 x i8], %struct.KeccakWidth1600_12rounds_SpongeInstanceStruct, i64, i64, i32, i32 }
%struct.KeccakWidth1600_12rounds_SpongeInstanceStruct = type { [200 x i8], i32, i32, i32 }

; Function Attrs: nounwind uwtable
define internal i32 @right_encode(ptr noundef %0, i64 noundef %1) #0 {
  %3 = alloca ptr, align 8
  %4 = alloca i64, align 8
  %5 = alloca i32, align 4
  %6 = alloca i32, align 4
  %7 = alloca i64, align 8
  store ptr %0, ptr %3, align 8
  store i64 %1, ptr %4, align 8
  call void @llvm.lifetime.start.p0(i64 4, ptr %5) #3
  call void @llvm.lifetime.start.p0(i64 4, ptr %6) #3
  call void @llvm.lifetime.start.p0(i64 8, ptr %7) #3
  %8 = load i64, ptr %4, align 8
  store i64 %8, ptr %7, align 8
  store i32 0, ptr %5, align 4
  br label %9

9:                                                ; preds = %19, %2
  %10 = load i64, ptr %7, align 8
  %11 = icmp ne i64 %10, 0
  br i1 %11, label %12, label %16

12:                                               ; preds = %9
  %13 = load i32, ptr %5, align 4
  %14 = zext i32 %13 to i64
  %15 = icmp ult i64 %14, 8
  br label %16

16:                                               ; preds = %12, %9
  %17 = phi i1 [ false, %9 ], [ %15, %12 ]
  br i1 %17, label %18, label %24

18:                                               ; preds = %16
  br label %19

19:                                               ; preds = %18
  %20 = load i32, ptr %5, align 4
  %21 = add i32 %20, 1
  store i32 %21, ptr %5, align 4
  %22 = load i64, ptr %7, align 8
  %23 = lshr i64 %22, 8
  store i64 %23, ptr %7, align 8
  br label %9, !llvm.loop !11

24:                                               ; preds = %16
  store i32 1, ptr %6, align 4
  br label %25

25:                                               ; preds = %43, %24
  %26 = load i32, ptr %6, align 4
  %27 = load i32, ptr %5, align 4
  %28 = icmp ule i32 %26, %27
  br i1 %28, label %29, label %46

29:                                               ; preds = %25
  %30 = load i64, ptr %4, align 8
  %31 = load i32, ptr %5, align 4
  %32 = load i32, ptr %6, align 4
  %33 = sub i32 %31, %32
  %34 = mul i32 8, %33
  %35 = zext i32 %34 to i64
  %36 = lshr i64 %30, %35
  %37 = trunc i64 %36 to i8
  %38 = load ptr, ptr %3, align 8
  %39 = load i32, ptr %6, align 4
  %40 = sub i32 %39, 1
  %41 = zext i32 %40 to i64
  %42 = getelementptr inbounds nuw i8, ptr %38, i64 %41
  store i8 %37, ptr %42, align 1
  br label %43

43:                                               ; preds = %29
  %44 = load i32, ptr %6, align 4
  %45 = add i32 %44, 1
  store i32 %45, ptr %6, align 4
  br label %25, !llvm.loop !12

46:                                               ; preds = %25
  %47 = load i32, ptr %5, align 4
  %48 = trunc i32 %47 to i8
  %49 = load ptr, ptr %3, align 8
  %50 = load i32, ptr %5, align 4
  %51 = zext i32 %50 to i64
  %52 = getelementptr inbounds nuw i8, ptr %49, i64 %51
  store i8 %48, ptr %52, align 1
  %53 = load i32, ptr %5, align 4
  %54 = add i32 %53, 1
  call void @llvm.lifetime.end.p0(i64 8, ptr %7) #3
  call void @llvm.lifetime.end.p0(i64 4, ptr %6) #3
  call void @llvm.lifetime.end.p0(i64 4, ptr %5) #3
  ret i32 %54
}

; Function Attrs: nounwind uwtable
define dso_local i32 @KangarooTwelve_Final(ptr noundef %0, ptr noundef %1, ptr noundef %2, i64 noundef %3) #0 {
  %5 = alloca i32, align 4
  %6 = alloca ptr, align 8
  %7 = alloca ptr, align 8
  %8 = alloca ptr, align 8
  %9 = alloca i64, align 8
  %10 = alloca [11 x i8], align 1
  %11 = alloca i8, align 1
  %12 = alloca i32, align 4
  %13 = alloca i32, align 4
  %14 = alloca [32 x i8], align 16
  store ptr %0, ptr %6, align 8
  store ptr %1, ptr %7, align 8
  store ptr %2, ptr %8, align 8
  store i64 %3, ptr %9, align 8
  call void @llvm.lifetime.start.p0(i64 11, ptr %10) #3
  call void @llvm.lifetime.start.p0(i64 1, ptr %11) #3
  %15 = load ptr, ptr %6, align 8
  %16 = getelementptr inbounds nuw %struct.KangarooTwelve_Instance, ptr %15, i32 0, i32 6
  %17 = load i32, ptr %16, align 4
  %18 = icmp ne i32 %17, 1
  br i1 %18, label %19, label %20

19:                                               ; preds = %4
  store i32 1, ptr %5, align 4
  store i32 1, ptr %12, align 4
  br label %134

20:                                               ; preds = %4
  %21 = load i64, ptr %9, align 8
  %22 = icmp ne i64 %21, 0
  br i1 %22, label %23, label %30

23:                                               ; preds = %20
  %24 = load ptr, ptr %6, align 8
  %25 = load ptr, ptr %8, align 8
  %26 = load i64, ptr %9, align 8
  %27 = call i32 @KangarooTwelve_Update(ptr noundef %24, ptr noundef %25, i64 noundef %26)
  %28 = icmp ne i32 %27, 0
  br i1 %28, label %29, label %30

29:                                               ; preds = %23
  store i32 1, ptr %5, align 4
  store i32 1, ptr %12, align 4
  br label %134

30:                                               ; preds = %23, %20
  %31 = load ptr, ptr %6, align 8
  %32 = getelementptr inbounds [11 x i8], ptr %10, i64 0, i64 0
  %33 = getelementptr inbounds [11 x i8], ptr %10, i64 0, i64 0
  %34 = load i64, ptr %9, align 8
  %35 = call i32 @right_encode(ptr noundef %33, i64 noundef %34)
  %36 = zext i32 %35 to i64
  %37 = call i32 @KangarooTwelve_Update(ptr noundef %31, ptr noundef %32, i64 noundef %36)
  %38 = icmp ne i32 %37, 0
  br i1 %38, label %39, label %40

39:                                               ; preds = %30
  store i32 1, ptr %5, align 4
  store i32 1, ptr %12, align 4
  br label %134

40:                                               ; preds = %30
  %41 = load ptr, ptr %6, align 8
  %42 = getelementptr inbounds nuw %struct.KangarooTwelve_Instance, ptr %41, i32 0, i32 4
  %43 = load i64, ptr %42, align 8
  %44 = icmp eq i64 %43, 0
  br i1 %44, label %45, label %46

45:                                               ; preds = %40
  store i8 7, ptr %11, align 1
  br label %109

46:                                               ; preds = %40
  call void @llvm.lifetime.start.p0(i64 4, ptr %13) #3
  %47 = load ptr, ptr %6, align 8
  %48 = getelementptr inbounds nuw %struct.KangarooTwelve_Instance, ptr %47, i32 0, i32 5
  %49 = load i32, ptr %48, align 8
  %50 = icmp ne i32 %49, 0
  br i1 %50, label %51, label %79

51:                                               ; preds = %46
  call void @llvm.lifetime.start.p0(i64 32, ptr %14) #3
  %52 = load ptr, ptr %6, align 8
  %53 = getelementptr inbounds nuw %struct.KangarooTwelve_Instance, ptr %52, i32 0, i32 4
  %54 = load i64, ptr %53, align 8
  %55 = add i64 %54, 1
  store i64 %55, ptr %53, align 8
  %56 = load ptr, ptr %6, align 8
  %57 = getelementptr inbounds nuw %struct.KangarooTwelve_Instance, ptr %56, i32 0, i32 0
  %58 = call i32 @KeccakWidth1600_12rounds_SpongeAbsorbLastFewBits(ptr noundef %57, i8 noundef zeroext 11)
  %59 = icmp ne i32 %58, 0
  br i1 %59, label %60, label %61

60:                                               ; preds = %51
  store i32 1, ptr %5, align 4
  store i32 1, ptr %12, align 4
  br label %76

61:                                               ; preds = %51
  %62 = load ptr, ptr %6, align 8
  %63 = getelementptr inbounds nuw %struct.KangarooTwelve_Instance, ptr %62, i32 0, i32 0
  %64 = getelementptr inbounds [32 x i8], ptr %14, i64 0, i64 0
  %65 = call i32 @KeccakWidth1600_12rounds_SpongeSqueeze(ptr noundef %63, ptr noundef %64, i64 noundef 32)
  %66 = icmp ne i32 %65, 0
  br i1 %66, label %67, label %68

67:                                               ; preds = %61
  store i32 1, ptr %5, align 4
  store i32 1, ptr %12, align 4
  br label %76

68:                                               ; preds = %61
  %69 = load ptr, ptr %6, align 8
  %70 = getelementptr inbounds nuw %struct.KangarooTwelve_Instance, ptr %69, i32 0, i32 2
  %71 = getelementptr inbounds [32 x i8], ptr %14, i64 0, i64 0
  %72 = call i32 @KeccakWidth1600_12rounds_SpongeAbsorb(ptr noundef %70, ptr noundef %71, i64 noundef 32)
  %73 = icmp ne i32 %72, 0
  br i1 %73, label %74, label %75

74:                                               ; preds = %68
  store i32 1, ptr %5, align 4
  store i32 1, ptr %12, align 4
  br label %76

75:                                               ; preds = %68
  store i32 0, ptr %12, align 4
  br label %76

76:                                               ; preds = %75, %74, %67, %60
  call void @llvm.lifetime.end.p0(i64 32, ptr %14) #3
  %77 = load i32, ptr %12, align 4
  switch i32 %77, label %106 [
    i32 0, label %78
  ]

78:                                               ; preds = %76
  br label %79

79:                                               ; preds = %78, %46
  %80 = load ptr, ptr %6, align 8
  %81 = getelementptr inbounds nuw %struct.KangarooTwelve_Instance, ptr %80, i32 0, i32 4
  %82 = load i64, ptr %81, align 8
  %83 = add i64 %82, -1
  store i64 %83, ptr %81, align 8
  %84 = getelementptr inbounds [11 x i8], ptr %10, i64 0, i64 0
  %85 = load ptr, ptr %6, align 8
  %86 = getelementptr inbounds nuw %struct.KangarooTwelve_Instance, ptr %85, i32 0, i32 4
  %87 = load i64, ptr %86, align 8
  %88 = call i32 @right_encode(ptr noundef %84, i64 noundef %87)
  store i32 %88, ptr %13, align 4
  %89 = load i32, ptr %13, align 4
  %90 = add i32 %89, 1
  store i32 %90, ptr %13, align 4
  %91 = zext i32 %89 to i64
  %92 = getelementptr inbounds nuw [11 x i8], ptr %10, i64 0, i64 %91
  store i8 -1, ptr %92, align 1
  %93 = load i32, ptr %13, align 4
  %94 = add i32 %93, 1
  store i32 %94, ptr %13, align 4
  %95 = zext i32 %93 to i64
  %96 = getelementptr inbounds nuw [11 x i8], ptr %10, i64 0, i64 %95
  store i8 -1, ptr %96, align 1
  %97 = load ptr, ptr %6, align 8
  %98 = getelementptr inbounds nuw %struct.KangarooTwelve_Instance, ptr %97, i32 0, i32 2
  %99 = getelementptr inbounds [11 x i8], ptr %10, i64 0, i64 0
  %100 = load i32, ptr %13, align 4
  %101 = zext i32 %100 to i64
  %102 = call i32 @KeccakWidth1600_12rounds_SpongeAbsorb(ptr noundef %98, ptr noundef %99, i64 noundef %101)
  %103 = icmp ne i32 %102, 0
  br i1 %103, label %104, label %105

104:                                              ; preds = %79
  store i32 1, ptr %5, align 4
  store i32 1, ptr %12, align 4
  br label %106

105:                                              ; preds = %79
  store i8 6, ptr %11, align 1
  store i32 0, ptr %12, align 4
  br label %106

106:                                              ; preds = %105, %104, %76
  call void @llvm.lifetime.end.p0(i64 4, ptr %13) #3
  %107 = load i32, ptr %12, align 4
  switch i32 %107, label %134 [
    i32 0, label %108
  ]

108:                                              ; preds = %106
  br label %109

109:                                              ; preds = %108, %45
  %110 = load ptr, ptr %6, align 8
  %111 = getelementptr inbounds nuw %struct.KangarooTwelve_Instance, ptr %110, i32 0, i32 2
  %112 = load i8, ptr %11, align 1
  %113 = call i32 @KeccakWidth1600_12rounds_SpongeAbsorbLastFewBits(ptr noundef %111, i8 noundef zeroext %112)
  %114 = icmp ne i32 %113, 0
  br i1 %114, label %115, label %116

115:                                              ; preds = %109
  store i32 1, ptr %5, align 4
  store i32 1, ptr %12, align 4
  br label %134

116:                                              ; preds = %109
  %117 = load ptr, ptr %6, align 8
  %118 = getelementptr inbounds nuw %struct.KangarooTwelve_Instance, ptr %117, i32 0, i32 3
  %119 = load i64, ptr %118, align 8
  %120 = icmp ne i64 %119, 0
  br i1 %120, label %121, label %131

121:                                              ; preds = %116
  %122 = load ptr, ptr %6, align 8
  %123 = getelementptr inbounds nuw %struct.KangarooTwelve_Instance, ptr %122, i32 0, i32 6
  store i32 2, ptr %123, align 4
  %124 = load ptr, ptr %6, align 8
  %125 = getelementptr inbounds nuw %struct.KangarooTwelve_Instance, ptr %124, i32 0, i32 2
  %126 = load ptr, ptr %7, align 8
  %127 = load ptr, ptr %6, align 8
  %128 = getelementptr inbounds nuw %struct.KangarooTwelve_Instance, ptr %127, i32 0, i32 3
  %129 = load i64, ptr %128, align 8
  %130 = call i32 @KeccakWidth1600_12rounds_SpongeSqueeze(ptr noundef %125, ptr noundef %126, i64 noundef %129)
  store i32 %130, ptr %5, align 4
  store i32 1, ptr %12, align 4
  br label %134

131:                                              ; preds = %116
  %132 = load ptr, ptr %6, align 8
  %133 = getelementptr inbounds nuw %struct.KangarooTwelve_Instance, ptr %132, i32 0, i32 6
  store i32 3, ptr %133, align 4
  store i32 0, ptr %5, align 4
  store i32 1, ptr %12, align 4
  br label %134

134:                                              ; preds = %131, %121, %115, %106, %39, %29, %19
  call void @llvm.lifetime.end.p0(i64 1, ptr %11) #3
  call void @llvm.lifetime.end.p0(i64 11, ptr %10) #3
  %135 = load i32, ptr %5, align 4
  ret i32 %135
}