; Function Attrs: nounwind uwtable
define dso_local i32 @KangarooTwelve_Final(ptr noundef %0, ptr noundef %1, ptr noundef %2, i64 noundef %3) local_unnamed_addr #0 {
  %5 = alloca [11 x i8], align 1
  %6 = alloca [32 x i8], align 16
  call void @llvm.lifetime.start.p0(i64 11, ptr nonnull %5) #4
  %7 = getelementptr inbounds nuw i8, ptr %0, i64 452
  %8 = load i32, ptr %7, align 4
  %.not = icmp eq i32 %8, 1
  br i1 %.not, label %9, label %.critedge48

9:                                                ; preds = %4
  %.not36 = icmp eq i64 %3, 0
  br i1 %.not36, label %.split, label %10

.split:                                           ; preds = %9
  store i8 0, ptr %5, align 1
  br label %26

10:                                               ; preds = %9
  %11 = tail call i32 @KangarooTwelve_Update(ptr noundef nonnull %0, ptr noundef %2, i64 noundef %3)
  %.not37 = icmp eq i32 %11, 0
  br i1 %.not37, label %.lr.ph.i, label %.critedge48

.lr.ph22.preheader.i:                             ; preds = %.lr.ph.i
  %12 = add nuw nsw i32 %.01718.i, 2
  %wide.trip.count.i = zext nneg i32 %12 to i64
  %invariant.gep.i = getelementptr i8, ptr %5, i64 -1
  br label %.lr.ph22.i

.lr.ph.i:                                         ; preds = %10, %.lr.ph.i
  %.019.i = phi i64 [ %14, %.lr.ph.i ], [ %3, %10 ]
  %.01718.i = phi i32 [ %13, %.lr.ph.i ], [ 0, %10 ]
  %13 = add nuw nsw i32 %.01718.i, 1
  %14 = lshr i64 %.019.i, 8
  %15 = icmp ugt i64 %.019.i, 255
  %16 = icmp samesign ult i32 %.01718.i, 7
  %17 = select i1 %15, i1 %16, i1 false
  br i1 %17, label %.lr.ph.i, label %.lr.ph22.preheader.i, !llvm.loop !8

.lr.ph22.i:                                       ; preds = %.lr.ph22.i, %.lr.ph22.preheader.i
  %indvars.iv.i = phi i64 [ 1, %.lr.ph22.preheader.i ], [ %indvars.iv.next.i, %.lr.ph22.i ]
  %18 = trunc i64 %indvars.iv.i to i32
  %19 = sub i32 %13, %18
  %20 = shl i32 %19, 3
  %21 = zext nneg i32 %20 to i64
  %22 = lshr i64 %3, %21
  %23 = trunc i64 %22 to i8
  %gep.i = getelementptr i8, ptr %invariant.gep.i, i64 %indvars.iv.i
  store i8 %23, ptr %gep.i, align 1
  %indvars.iv.next.i = add nuw nsw i64 %indvars.iv.i, 1
  %exitcond.i = icmp eq i64 %indvars.iv.next.i, %wide.trip.count.i
  br i1 %exitcond.i, label %right_encode.exit, label %.lr.ph22.i, !llvm.loop !11

right_encode.exit:                                ; preds = %.lr.ph22.i
  %.pre-phi.i = zext nneg i32 %13 to i64
  %24 = trunc i32 %13 to i8
  %25 = getelementptr inbounds nuw i8, ptr %5, i64 %.pre-phi.i
  store i8 %24, ptr %25, align 1
  br label %26

26:                                               ; preds = %right_encode.exit, %.split
  %phi.call = phi i64 [ 1, %.split ], [ %wide.trip.count.i, %right_encode.exit ]
  %27 = call i32 @KangarooTwelve_Update(ptr noundef %0, ptr noundef nonnull %5, i64 noundef %phi.call)
  %.not38 = icmp eq i32 %27, 0
  br i1 %.not38, label %28, label %.critedge48

28:                                               ; preds = %26
  %29 = getelementptr inbounds nuw i8, ptr %0, i64 440
  %30 = load i64, ptr %29, align 8
  %31 = icmp eq i64 %30, 0
  br i1 %31, label %69, label %32

32:                                               ; preds = %28
  %33 = getelementptr inbounds nuw i8, ptr %0, i64 448
  %34 = load i32, ptr %33, align 8
  %.not39 = icmp eq i32 %34, 0
  br i1 %.not39, label %43, label %35

35:                                               ; preds = %32
  call void @llvm.lifetime.start.p0(i64 32, ptr nonnull %6) #4
  %36 = add i64 %30, 1
  store i64 %36, ptr %29, align 8
  %37 = call i32 @KeccakWidth1600_12rounds_SpongeAbsorbLastFewBits(ptr noundef nonnull %0, i8 noundef zeroext 11) #4
  %.not40 = icmp eq i32 %37, 0
  br i1 %.not40, label %38, label %.critedge

38:                                               ; preds = %35
  %39 = call i32 @KeccakWidth1600_12rounds_SpongeSqueeze(ptr noundef nonnull %0, ptr noundef nonnull %6, i64 noundef 32) #4
  %.not41 = icmp eq i32 %39, 0
  br i1 %.not41, label %40, label %.critedge

40:                                               ; preds = %38
  %41 = getelementptr inbounds nuw i8, ptr %0, i64 216
  %42 = call i32 @KeccakWidth1600_12rounds_SpongeAbsorb(ptr noundef nonnull %41, ptr noundef nonnull %6, i64 noundef 32) #4
  %.not42 = icmp eq i32 %42, 0
  call void @llvm.lifetime.end.p0(i64 32, ptr nonnull %6) #4
  br i1 %.not42, label %._crit_edge, label %.critedge48

._crit_edge:                                      ; preds = %40
  %.pre = load i64, ptr %29, align 8
  br label %43

43:                                               ; preds = %._crit_edge, %32
  %44 = phi i64 [ %.pre, %._crit_edge ], [ %30, %32 ]
  %45 = add i64 %44, -1
  store i64 %45, ptr %29, align 8
  %.not23.i49 = icmp eq i64 %45, 0
  br i1 %.not23.i49, label %right_encode.exit64, label %.lr.ph.i50

.lr.ph22.preheader.i53:                           ; preds = %.lr.ph.i50
  %46 = add nuw nsw i32 %.01718.i52, 2
  %wide.trip.count.i54 = zext nneg i32 %46 to i64
  %invariant.gep.i55 = getelementptr i8, ptr %5, i64 -1
  br label %.lr.ph22.i56

.lr.ph.i50:                                       ; preds = %43, %.lr.ph.i50
  %.019.i51 = phi i64 [ %48, %.lr.ph.i50 ], [ %45, %43 ]
  %.01718.i52 = phi i32 [ %47, %.lr.ph.i50 ], [ 0, %43 ]
  %47 = add nuw nsw i32 %.01718.i52, 1
  %48 = lshr i64 %.019.i51, 8
  %49 = icmp ugt i64 %.019.i51, 255
  %50 = icmp samesign ult i32 %.01718.i52, 7
  %51 = select i1 %49, i1 %50, i1 false
  br i1 %51, label %.lr.ph.i50, label %.lr.ph22.preheader.i53, !llvm.loop !8

.lr.ph22.i56:                                     ; preds = %.lr.ph22.i56, %.lr.ph22.preheader.i53
  %indvars.iv.i57 = phi i64 [ 1, %.lr.ph22.preheader.i53 ], [ %indvars.iv.next.i59, %.lr.ph22.i56 ]
  %52 = trunc i64 %indvars.iv.i57 to i32
  %53 = sub i32 %47, %52
  %54 = shl i32 %53, 3
  %55 = zext nneg i32 %54 to i64
  %56 = lshr i64 %45, %55
  %57 = trunc i64 %56 to i8
  %gep.i58 = getelementptr i8, ptr %invariant.gep.i55, i64 %indvars.iv.i57
  store i8 %57, ptr %gep.i58, align 1
  %indvars.iv.next.i59 = add nuw nsw i64 %indvars.iv.i57, 1
  %exitcond.i60 = icmp eq i64 %indvars.iv.next.i59, %wide.trip.count.i54
  br i1 %exitcond.i60, label %right_encode.exit64, label %.lr.ph22.i56, !llvm.loop !11

right_encode.exit64:                              ; preds = %.lr.ph22.i56, %43
  %.017.lcssa29.i61 = phi i32 [ 0, %43 ], [ %47, %.lr.ph22.i56 ]
  %.pre-phi26.i62 = phi i32 [ 1, %43 ], [ %46, %.lr.ph22.i56 ]
  %.pre-phi.i63 = zext i32 %.017.lcssa29.i61 to i64
  %58 = trunc i32 %.017.lcssa29.i61 to i8
  %59 = getelementptr inbounds nuw i8, ptr %5, i64 %.pre-phi.i63
  store i8 %58, ptr %59, align 1
  %60 = add i32 %.pre-phi26.i62, 1
  %61 = zext i32 %.pre-phi26.i62 to i64
  %62 = getelementptr inbounds nuw [11 x i8], ptr %5, i64 0, i64 %61
  store i8 -1, ptr %62, align 1
  %63 = add i32 %.pre-phi26.i62, 2
  %64 = zext i32 %60 to i64
  %65 = getelementptr inbounds nuw [11 x i8], ptr %5, i64 0, i64 %64
  store i8 -1, ptr %65, align 1
  %66 = getelementptr inbounds nuw i8, ptr %0, i64 216
  %67 = zext i32 %63 to i64
  %68 = call i32 @KeccakWidth1600_12rounds_SpongeAbsorb(ptr noundef nonnull %66, ptr noundef nonnull %5, i64 noundef %67) #4
  %.not43 = icmp eq i32 %68, 0
  br i1 %.not43, label %69, label %.critedge48

.critedge:                                        ; preds = %38, %35
  call void @llvm.lifetime.end.p0(i64 32, ptr nonnull %6) #4
  br label %.critedge48

69:                                               ; preds = %28, %right_encode.exit64
  %.032 = phi i8 [ 6, %right_encode.exit64 ], [ 7, %28 ]
  %70 = getelementptr inbounds nuw i8, ptr %0, i64 216
  %71 = call i32 @KeccakWidth1600_12rounds_SpongeAbsorbLastFewBits(ptr noundef nonnull %70, i8 noundef zeroext %.032) #4
  %.not44 = icmp eq i32 %71, 0
  br i1 %.not44, label %72, label %.critedge48

72:                                               ; preds = %69
  %73 = getelementptr inbounds nuw i8, ptr %0, i64 432
  %74 = load i64, ptr %73, align 8
  %.not45 = icmp eq i64 %74, 0
  br i1 %.not45, label %77, label %75

75:                                               ; preds = %72
  store i32 2, ptr %7, align 4
  %76 = call i32 @KeccakWidth1600_12rounds_SpongeSqueeze(ptr noundef nonnull %70, ptr noundef %1, i64 noundef %74) #4
  br label %.critedge48

77:                                               ; preds = %72
  store i32 3, ptr %7, align 4
  br label %.critedge48

.critedge48:                                      ; preds = %40, %.critedge, %69, %26, %10, %4, %right_encode.exit64, %77, %75
  %.0 = phi i32 [ %76, %75 ], [ 0, %77 ], [ 1, %right_encode.exit64 ], [ 1, %4 ], [ 1, %10 ], [ 1, %26 ], [ 1, %69 ], [ 1, %.critedge ], [ 1, %40 ]
  call void @llvm.lifetime.end.p0(i64 11, ptr nonnull %5) #4
  ret i32 %.0
}